; Function Attrs: mustprogress nounwind uwtable
define dso_local void @_ZN4llvm16MCObjectStreamer18emitCFIEndProcImplERNS_16MCDwarfFrameInfoE(ptr noundef nonnull align 8 dereferenceable(424) %0, ptr noundef nonnull writeonly align 8 captures(none) dereferenceable(90) initializes((8, 16)) %1) unnamed_addr #0 align 2 {
  %3 = getelementptr inbounds nuw i8, ptr %0, i64 8
  %4 = load ptr, ptr %3, align 8
  %5 = tail call noundef ptr @_ZN4llvm9MCContext16createTempSymbolEv(ptr noundef nonnull align 8 dereferenceable(2432) %4) #20
  %6 = getelementptr inbounds nuw i8, ptr %1, i64 8
  store ptr %5, ptr %6, align 8
  %7 = load ptr, ptr %0, align 8
  %8 = getelementptr inbounds nuw i8, ptr %7, i64 200
  %9 = load ptr, ptr %8, align 8
  tail call void %9(ptr noundef nonnull align 8 dereferenceable(424) %0, ptr noundef %5, ptr null) #20
  ret void
}